target datalayout = "e-m:e-p270:32:32-p271:32:32-p272:64:64-i64:64-i128:128-f80:128-n8:16:32:64-S128"
target triple = "x86_64-pc-linux-gnu"

%"class.icu_77::RegexCompile" = type { ptr, ptr, ptr, ptr, i64, i8, i8, i8, i64, i64, i32, i32, %"struct.icu_77::RegexCompile::RegexPatternChar", [100 x i16], i32, i32, i32, i8, %"class.icu_77::UnicodeString", i64, %"class.icu_77::UVector32", i32, i32, i32, i32, %"class.icu_77::UStack", %"class.icu_77::UStack", i32, ptr }
%"struct.icu_77::RegexCompile::RegexPatternChar" = type { i32, i8 }
%"class.icu_77::UnicodeString" = type { %"class.icu_77::Replaceable", %"union.icu_77::UnicodeString::StackBufferOrFields" }
%"class.icu_77::Replaceable" = type { %"class.icu_77::UObject" }
%"class.icu_77::UObject" = type { ptr }
%"union.icu_77::UnicodeString::StackBufferOrFields" = type { %struct.anon.0, [32 x i8] }
%struct.anon.0 = type { i16, i32, i32, ptr }
%"class.icu_77::UVector32" = type { %"class.icu_77::UObject", i32, i32, i32, ptr }
%"class.icu_77::UStack" = type { %"class.icu_77::UVector" }
%"class.icu_77::UVector" = type { %"class.icu_77::UObject", i32, i32, ptr, ptr, ptr }
%"class.icu_77::RegexPattern" = type { %"class.icu_77::UObject", ptr, ptr, i32, ptr, %"class.icu_77::UnicodeString", ptr, ptr, i32, i32, i32, i32, ptr, i32, i32, i32, ptr, i32, ptr, i8, ptr }
%"class.icu_77::UVector64" = type { %"class.icu_77::UObject", i32, i32, i32, ptr }

; Function Attrs: inlinehint mustprogress nounwind uwtable
define internal noundef signext i8 @_ZL9U_FAILURE10UErrorCode(i32 noundef %0) #2 {
  %2 = alloca i32, align 4
  store i32 %0, ptr %2, align 4, !tbaa !15
  %3 = load i32, ptr %2, align 4, !tbaa !15
  %4 = icmp sgt i32 %3, 0
  %5 = zext i1 %4 to i8
  ret i8 %5
}

; Function Attrs: inlinehint mustprogress nounwind uwtable
define linkonce_odr noundef i32 @_ZNK6icu_779UVector3210elementAtiEi(ptr noundef nonnull align 8 dereferenceable(32) %0, i32 noundef %1) #2 comdat align 2 {
  %3 = alloca ptr, align 8
  %4 = alloca i32, align 4
  store ptr %0, ptr %3, align 8, !tbaa !164
  store i32 %1, ptr %4, align 4, !tbaa !14
  %5 = load ptr, ptr %3, align 8
  %6 = load i32, ptr %4, align 4, !tbaa !14
  %7 = icmp sge i32 %6, 0
  br i1 %7, label %8, label %25

8:                                                ; preds = %2
  %9 = getelementptr inbounds nuw %"class.icu_77::UVector32", ptr %5, i32 0, i32 1
  %10 = load i32, ptr %9, align 8, !tbaa !165
  %11 = icmp sgt i32 %10, 0
  br i1 %11, label %12, label %25

12:                                               ; preds = %8
  %13 = getelementptr inbounds nuw %"class.icu_77::UVector32", ptr %5, i32 0, i32 1
  %14 = load i32, ptr %13, align 8, !tbaa !165
  %15 = load i32, ptr %4, align 4, !tbaa !14
  %16 = sub nsw i32 %14, %15
  %17 = icmp sgt i32 %16, 0
  br i1 %17, label %18, label %25

18:                                               ; preds = %12
  %19 = getelementptr inbounds nuw %"class.icu_77::UVector32", ptr %5, i32 0, i32 4
  %20 = load ptr, ptr %19, align 8, !tbaa !166
  %21 = load i32, ptr %4, align 4, !tbaa !14
  %22 = sext i32 %21 to i64
  %23 = getelementptr inbounds i32, ptr %20, i64 %22
  %24 = load i32, ptr %23, align 4, !tbaa !14
  br label %26

25:                                               ; preds = %12, %8, %2
  br label %26

26:                                               ; preds = %25, %18
  %27 = phi i32 [ %24, %18 ], [ 0, %25 ]
  ret i32 %27
}

; Function Attrs: inlinehint mustprogress nounwind uwtable
define linkonce_odr noundef i32 @_ZNK6icu_779UVector324sizeEv(ptr noundef nonnull align 8 dereferenceable(32) %0) #2 comdat align 2 {
  %2 = alloca ptr, align 8
  store ptr %0, ptr %2, align 8, !tbaa !164
  %3 = load ptr, ptr %2, align 8
  %4 = getelementptr inbounds nuw %"class.icu_77::UVector32", ptr %3, i32 0, i32 1
  %5 = load i32, ptr %4, align 8, !tbaa !165
  ret i32 %5
}

; Function Attrs: inlinehint mustprogress nounwind uwtable
define linkonce_odr noundef i64 @_ZNK6icu_779UVector6410elementAtiEi(ptr noundef nonnull align 8 dereferenceable(32) %0, i32 noundef %1) #2 comdat align 2 {
  %3 = alloca ptr, align 8
  %4 = alloca i32, align 4
  store ptr %0, ptr %3, align 8, !tbaa !146
  store i32 %1, ptr %4, align 4, !tbaa !14
  %5 = load ptr, ptr %3, align 8
  %6 = load i32, ptr %4, align 4, !tbaa !14
  %7 = icmp sle i32 0, %6
  br i1 %7, label %8, label %20

8:                                                ; preds = %2
  %9 = load i32, ptr %4, align 4, !tbaa !14
  %10 = getelementptr inbounds nuw %"class.icu_77::UVector64", ptr %5, i32 0, i32 1
  %11 = load i32, ptr %10, align 8, !tbaa !147
  %12 = icmp slt i32 %9, %11
  br i1 %12, label %13, label %20

13:                                               ; preds = %8
  %14 = getelementptr inbounds nuw %"class.icu_77::UVector64", ptr %5, i32 0, i32 4
  %15 = load ptr, ptr %14, align 8, !tbaa !167
  %16 = load i32, ptr %4, align 4, !tbaa !14
  %17 = sext i32 %16 to i64
  %18 = getelementptr inbounds i64, ptr %15, i64 %17
  %19 = load i64, ptr %18, align 8, !tbaa !18
  br label %21

20:                                               ; preds = %8, %2
  br label %21

21:                                               ; preds = %20, %13
  %22 = phi i64 [ %19, %13 ], [ 0, %20 ]
  ret i64 %22
}

; Function Attrs: inlinehint mustprogress nounwind uwtable
define linkonce_odr noundef i32 @_ZNK6icu_779UVector644sizeEv(ptr noundef nonnull align 8 dereferenceable(32) %0) #2 comdat align 2 {
  %2 = alloca ptr, align 8
  store ptr %0, ptr %2, align 8, !tbaa !146
  %3 = load ptr, ptr %2, align 8
  %4 = getelementptr inbounds nuw %"class.icu_77::UVector64", ptr %3, i32 0, i32 1
  %5 = load i32, ptr %4, align 8, !tbaa !147
  ret i32 %5
}

; Function Attrs: mustprogress uwtable
define noundef i32 @_ZN6icu_7712RegexCompile7buildOpEii(ptr noundef nonnull align 8 dereferenceable(512) %0, i32 noundef %1, i32 noundef %2) #1 align 2 {
  %4 = alloca i32, align 4
  %5 = alloca ptr, align 8
  %6 = alloca i32, align 4
  %7 = alloca i32, align 4
  store ptr %0, ptr %5, align 8, !tbaa !23
  store i32 %1, ptr %6, align 4, !tbaa !14
  store i32 %2, ptr %7, align 4, !tbaa !14
  %8 = load ptr, ptr %5, align 8
  %9 = getelementptr inbounds nuw %"class.icu_77::RegexCompile", ptr %8, i32 0, i32 1
  %10 = load ptr, ptr %9, align 8, !tbaa !29
  %11 = load i32, ptr %10, align 4, !tbaa !15
  %12 = call noundef signext i8 @_ZL9U_FAILURE10UErrorCode(i32 noundef %11)
  %13 = icmp ne i8 %12, 0
  br i1 %13, label %14, label %15

14:                                               ; preds = %3
  store i32 0, ptr %4, align 4
  br label %47

15:                                               ; preds = %3
  %16 = load i32, ptr %6, align 4, !tbaa !14
  %17 = icmp slt i32 %16, 0
  br i1 %17, label %21, label %18

18:                                               ; preds = %15
  %19 = load i32, ptr %6, align 4, !tbaa !14
  %20 = icmp sgt i32 %19, 255
  br i1 %20, label %21, label %22

21:                                               ; preds = %18, %15
  call void @abort() #15
  unreachable

22:                                               ; preds = %18
  %23 = load i32, ptr %7, align 4, !tbaa !14
  %24 = icmp sgt i32 %23, 16777215
  br i1 %24, label %25, label %26

25:                                               ; preds = %22
  call void @abort() #15
  unreachable

26:                                               ; preds = %22
  %27 = load i32, ptr %7, align 4, !tbaa !14
  %28 = icmp slt i32 %27, 0
  br i1 %28, label %29, label %42

29:                                               ; preds = %26
  %30 = load i32, ptr %6, align 4, !tbaa !14
  %31 = icmp eq i32 %30, 255
  br i1 %31, label %36, label %32

32:                                               ; preds = %29
  %33 = load i32, ptr %6, align 4, !tbaa !14
  %34 = icmp eq i32 %33, 0
  br i1 %34, label %36, label %35

35:                                               ; preds = %32
  call void @abort() #15
  unreachable

36:                                               ; preds = %32, %29
  %37 = load i32, ptr %7, align 4, !tbaa !14
  %38 = lshr i32 %37, 24
  %39 = icmp ne i32 %38, 255
  br i1 %39, label %40, label %41

40:                                               ; preds = %36
  call void @abort() #15
  unreachable

41:                                               ; preds = %36
  store i32 255, ptr %6, align 4, !tbaa !14
  br label %42

42:                                               ; preds = %41, %26
  %43 = load i32, ptr %6, align 4, !tbaa !14
  %44 = shl i32 %43, 24
  %45 = load i32, ptr %7, align 4, !tbaa !14
  %46 = or i32 %44, %45
  store i32 %46, ptr %4, align 4
  br label %47

47:                                               ; preds = %42, %14
  %48 = load i32, ptr %4, align 4
  ret i32 %48
}

; Function Attrs: mustprogress uwtable
define void @_ZN6icu_7712RegexCompile8insertOpEi(ptr noundef nonnull align 8 dereferenceable(512) %0, i32 noundef %1) #1 align 2 {
  %3 = alloca ptr, align 8
  %4 = alloca i32, align 4
  %5 = alloca ptr, align 8
  %6 = alloca i32, align 4
  %7 = alloca i32, align 4
  %8 = alloca i32, align 4
  %9 = alloca i32, align 4
  %10 = alloca i32, align 4
  %11 = alloca i32, align 4
  store ptr %0, ptr %3, align 8, !tbaa !23
  store i32 %1, ptr %4, align 4, !tbaa !14
  %12 = load ptr, ptr %3, align 8
  call void @llvm.lifetime.start.p0(i64 8, ptr %5) #13
  %13 = getelementptr inbounds nuw %"class.icu_77::RegexCompile", ptr %12, i32 0, i32 2
  %14 = load ptr, ptr %13, align 8, !tbaa !41
  %15 = getelementptr inbounds nuw %"class.icu_77::RegexPattern", ptr %14, i32 0, i32 4
  %16 = load ptr, ptr %15, align 8, !tbaa !92
  store ptr %16, ptr %5, align 8, !tbaa !146
  call void @llvm.lifetime.start.p0(i64 4, ptr %6) #13
  %17 = call noundef i32 @_ZN6icu_7712RegexCompile7buildOpEii(ptr noundef nonnull align 8 dereferenceable(512) %12, i32 noundef 7, i32 noundef 0)
  store i32 %17, ptr %6, align 4, !tbaa !14
  %18 = load ptr, ptr %5, align 8, !tbaa !146
  %19 = load i32, ptr %6, align 4, !tbaa !14
  %20 = sext i32 %19 to i64
  %21 = load i32, ptr %4, align 4, !tbaa !14
  %22 = getelementptr inbounds nuw %"class.icu_77::RegexCompile", ptr %12, i32 0, i32 1
  %23 = load ptr, ptr %22, align 8, !tbaa !29
  call void @_ZN6icu_779UVector6415insertElementAtEliR10UErrorCode(ptr noundef nonnull align 8 dereferenceable(32) %18, i64 noundef %20, i32 noundef %21, ptr noundef nonnull align 4 dereferenceable(4) %23)
  call void @llvm.lifetime.start.p0(i64 4, ptr %7) #13
  store i32 0, ptr %7, align 4, !tbaa !14
  br label %24

24:                                               ; preds = %76, %2
  %25 = load i32, ptr %7, align 4, !tbaa !14
  %26 = load ptr, ptr %5, align 8, !tbaa !146
  %27 = call noundef i32 @_ZNK6icu_779UVector644sizeEv(ptr noundef nonnull align 8 dereferenceable(32) %26)
  %28 = icmp slt i32 %25, %27
  br i1 %28, label %29, label %79

29:                                               ; preds = %24
  call void @llvm.lifetime.start.p0(i64 4, ptr %8) #13
  %30 = load ptr, ptr %5, align 8, !tbaa !146
  %31 = load i32, ptr %7, align 4, !tbaa !14
  %32 = call noundef i64 @_ZNK6icu_779UVector6410elementAtiEi(ptr noundef nonnull align 8 dereferenceable(32) %30, i32 noundef %31)
  %33 = trunc i64 %32 to i32
  store i32 %33, ptr %8, align 4, !tbaa !14
  call void @llvm.lifetime.start.p0(i64 4, ptr %9) #13
  %34 = load i32, ptr %8, align 4, !tbaa !14
  %35 = lshr i32 %34, 24
  store i32 %35, ptr %9, align 4, !tbaa !14
  call void @llvm.lifetime.start.p0(i64 4, ptr %10) #13
  %36 = load i32, ptr %8, align 4, !tbaa !14
  %37 = and i32 %36, 16777215
  store i32 %37, ptr %10, align 4, !tbaa !14
  %38 = load i32, ptr %9, align 4, !tbaa !14
  %39 = icmp eq i32 %38, 13
  br i1 %39, label %61, label %40

40:                                               ; preds = %29
  %41 = load i32, ptr %9, align 4, !tbaa !14
  %42 = icmp eq i32 %41, 36
  br i1 %42, label %61, label %43

43:                                               ; preds = %40
  %44 = load i32, ptr %9, align 4, !tbaa !14
  %45 = icmp eq i32 %44, 6
  br i1 %45, label %61, label %46

46:                                               ; preds = %43
  %47 = load i32, ptr %9, align 4, !tbaa !14
  %48 = icmp eq i32 %47, 28
  br i1 %48, label %61, label %49

49:                                               ; preds = %46
  %50 = load i32, ptr %9, align 4, !tbaa !14
  %51 = icmp eq i32 %50, 29
  br i1 %51, label %61, label %52

52:                                               ; preds = %49
  %53 = load i32, ptr %9, align 4, !tbaa !14
  %54 = icmp eq i32 %53, 15
  br i1 %54, label %61, label %55

55:                                               ; preds = %52
  %56 = load i32, ptr %9, align 4, !tbaa !14
  %57 = icmp eq i32 %56, 18
  br i1 %57, label %61, label %58

58:                                               ; preds = %55
  %59 = load i32, ptr %9, align 4, !tbaa !14
  %60 = icmp eq i32 %59, 31
  br i1 %60, label %61, label %75

61:                                               ; preds = %58, %55, %52, %49, %46, %43, %40, %29
  %62 = load i32, ptr %10, align 4, !tbaa !14
  %63 = load i32, ptr %4, align 4, !tbaa !14
  %64 = icmp sgt i32 %62, %63
  br i1 %64, label %65, label %75

65:                                               ; preds = %61
  %66 = load i32, ptr %10, align 4, !tbaa !14
  %67 = add nsw i32 %66, 1
  store i32 %67, ptr %10, align 4, !tbaa !14
  %68 = load i32, ptr %9, align 4, !tbaa !14
  %69 = load i32, ptr %10, align 4, !tbaa !14
  %70 = call noundef i32 @_ZN6icu_7712RegexCompile7buildOpEii(ptr noundef nonnull align 8 dereferenceable(512) %12, i32 noundef %68, i32 noundef %69)
  store i32 %70, ptr %8, align 4, !tbaa !14
  %71 = load ptr, ptr %5, align 8, !tbaa !146
  %72 = load i32, ptr %8, align 4, !tbaa !14
  %73 = sext i32 %72 to i64
  %74 = load i32, ptr %7, align 4, !tbaa !14
  call void @_ZN6icu_779UVector6412setElementAtEli(ptr noundef nonnull align 8 dereferenceable(32) %71, i64 noundef %73, i32 noundef %74)
  br label %75

75:                                               ; preds = %65, %61, %58
  call void @llvm.lifetime.end.p0(i64 4, ptr %10) #13
  call void @llvm.lifetime.end.p0(i64 4, ptr %9) #13
  call void @llvm.lifetime.end.p0(i64 4, ptr %8) #13
  br label %76

76:                                               ; preds = %75
  %77 = load i32, ptr %7, align 4, !tbaa !14
  %78 = add nsw i32 %77, 1
  store i32 %78, ptr %7, align 4, !tbaa !14
  br label %24, !llvm.loop !169

79:                                               ; preds = %24
  store i32 0, ptr %7, align 4, !tbaa !14
  br label %80

80:                                               ; preds = %99, %79
  %81 = load i32, ptr %7, align 4, !tbaa !14
  %82 = getelementptr inbounds nuw %"class.icu_77::RegexCompile", ptr %12, i32 0, i32 20
  %83 = call noundef i32 @_ZNK6icu_779UVector324sizeEv(ptr noundef nonnull align 8 dereferenceable(32) %82)
  %84 = icmp slt i32 %81, %83
  br i1 %84, label %85, label %102

85:                                               ; preds = %80
  call void @llvm.lifetime.start.p0(i64 4, ptr %11) #13
  %86 = getelementptr inbounds nuw %"class.icu_77::RegexCompile", ptr %12, i32 0, i32 20
  %87 = load i32, ptr %7, align 4, !tbaa !14
  %88 = call noundef i32 @_ZNK6icu_779UVector3210elementAtiEi(ptr noundef nonnull align 8 dereferenceable(32) %86, i32 noundef %87)
  store i32 %88, ptr %11, align 4, !tbaa !14
  %89 = load i32, ptr %11, align 4, !tbaa !14
  %90 = load i32, ptr %4, align 4, !tbaa !14
  %91 = icmp sgt i32 %89, %90
  br i1 %91, label %92, label %98

92:                                               ; preds = %85
  %93 = load i32, ptr %11, align 4, !tbaa !14
  %94 = add nsw i32 %93, 1
  store i32 %94, ptr %11, align 4, !tbaa !14
  %95 = getelementptr inbounds nuw %"class.icu_77::RegexCompile", ptr %12, i32 0, i32 20
  %96 = load i32, ptr %11, align 4, !tbaa !14
  %97 = load i32, ptr %7, align 4, !tbaa !14
  call void @_ZN6icu_779UVector3212setElementAtEii(ptr noundef nonnull align 8 dereferenceable(32) %95, i32 noundef %96, i32 noundef %97)
  br label %98

98:                                               ; preds = %92, %85
  call void @llvm.lifetime.end.p0(i64 4, ptr %11) #13
  br label %99

99:                                               ; preds = %98
  %100 = load i32, ptr %7, align 4, !tbaa !14
  %101 = add nsw i32 %100, 1
  store i32 %101, ptr %7, align 4, !tbaa !14
  br label %80, !llvm.loop !170

102:                                              ; preds = %80
  %103 = getelementptr inbounds nuw %"class.icu_77::RegexCompile", ptr %12, i32 0, i32 22
  %104 = load i32, ptr %103, align 4, !tbaa !61
  %105 = load i32, ptr %4, align 4, !tbaa !14
  %106 = icmp sgt i32 %104, %105
  br i1 %106, label %107, label %111

107:                                              ; preds = %102
  %108 = getelementptr inbounds nuw %"class.icu_77::RegexCompile", ptr %12, i32 0, i32 22
  %109 = load i32, ptr %108, align 4, !tbaa !61
  %110 = add nsw i32 %109, 1
  store i32 %110, ptr %108, align 4, !tbaa !61
  br label %111

111:                                              ; preds = %107, %102
  %112 = getelementptr inbounds nuw %"class.icu_77::RegexCompile", ptr %12, i32 0, i32 21
  %113 = load i32, ptr %112, align 8, !tbaa !60
  %114 = load i32, ptr %4, align 4, !tbaa !14
  %115 = icmp sgt i32 %113, %114
  br i1 %115, label %116, label %120

116:                                              ; preds = %111
  %117 = getelementptr inbounds nuw %"class.icu_77::RegexCompile", ptr %12, i32 0, i32 21
  %118 = load i32, ptr %117, align 8, !tbaa !60
  %119 = add nsw i32 %118, 1
  store i32 %119, ptr %117, align 8, !tbaa !60
  br label %120

120:                                              ; preds = %116, %111
  call void @llvm.lifetime.end.p0(i64 4, ptr %7) #13
  call void @llvm.lifetime.end.p0(i64 4, ptr %6) #13
  call void @llvm.lifetime.end.p0(i64 8, ptr %5) #13
  ret void
}