; Function Attrs: mustprogress uwtable
define void @_ZN6icu_7712RegexCompile8insertOpEi(ptr noundef nonnull align 8 dereferenceable(512) %0, i32 noundef %1) local_unnamed_addr #1 align 2 {
_ZN6icu_7712RegexCompile7buildOpEii.exit:
  %2 = getelementptr inbounds nuw i8, ptr %0, i64 16
  %3 = load ptr, ptr %2, align 8, !tbaa !33
  %4 = getelementptr inbounds nuw i8, ptr %3, i64 32
  %5 = load ptr, ptr %4, align 8, !tbaa !79
  %6 = getelementptr inbounds nuw i8, ptr %0, i64 8
  %7 = load ptr, ptr %6, align 8, !tbaa !18
  %8 = load i32, ptr %7, align 4, !tbaa !13
  %.inv = icmp sgt i32 %8, 0
  %spec.select = select i1 %.inv, i64 0, i64 117440512
  tail call void @_ZN6icu_779UVector6415insertElementAtEliR10UErrorCode(ptr noundef nonnull align 8 dereferenceable(32) %5, i64 noundef %spec.select, i32 noundef %1, ptr noundef nonnull align 4 dereferenceable(4) %7)
  %9 = getelementptr inbounds nuw i8, ptr %5, i64 8
  %10 = load i32, ptr %9, align 8, !tbaa !80
  %11 = icmp sgt i32 %10, 0
  br i1 %11, label %_ZNK6icu_779UVector6410elementAtiEi.exit.lr.ph, label %.preheader

_ZNK6icu_779UVector6410elementAtiEi.exit.lr.ph:   ; preds = %_ZN6icu_7712RegexCompile7buildOpEii.exit
  %12 = getelementptr inbounds nuw i8, ptr %5, i64 24
  br label %_ZNK6icu_779UVector6410elementAtiEi.exit

.preheader:                                       ; preds = %switch.early.test.thread, %_ZN6icu_7712RegexCompile7buildOpEii.exit
  %13 = getelementptr inbounds nuw i8, ptr %0, i64 368
  %14 = getelementptr inbounds nuw i8, ptr %0, i64 376
  %15 = load i32, ptr %14, align 8, !tbaa !110
  %16 = icmp sgt i32 %15, 0
  br i1 %16, label %_ZNK6icu_779UVector3210elementAtiEi.exit.lr.ph, label %._crit_edge

_ZNK6icu_779UVector3210elementAtiEi.exit.lr.ph:   ; preds = %.preheader
  %17 = getelementptr inbounds nuw i8, ptr %0, i64 392
  br label %_ZNK6icu_779UVector3210elementAtiEi.exit

_ZNK6icu_779UVector6410elementAtiEi.exit:         ; preds = %_ZNK6icu_779UVector6410elementAtiEi.exit.lr.ph, %switch.early.test.thread
  %18 = phi i32 [ %10, %_ZNK6icu_779UVector6410elementAtiEi.exit.lr.ph ], [ %42, %switch.early.test.thread ]
  %indvars.iv = phi i64 [ 0, %_ZNK6icu_779UVector6410elementAtiEi.exit.lr.ph ], [ %indvars.iv.next, %switch.early.test.thread ]
  %19 = load ptr, ptr %12, align 8, !tbaa !115
  %20 = getelementptr inbounds nuw i64, ptr %19, i64 %indvars.iv
  %21 = load i64, ptr %20, align 8, !tbaa !116
  %22 = trunc i64 %21 to i32
  %23 = and i32 %22, 16777215
  %24 = and i32 %22, -33554432
  %25 = icmp eq i32 %24, 469762048
  br i1 %25, label %27, label %switch.early.test

switch.early.test:                                ; preds = %_ZNK6icu_779UVector6410elementAtiEi.exit
  %26 = lshr i64 %21, 24
  %trunc = trunc i64 %26 to i8
  switch i8 %trunc, label %switch.early.test.thread [
    i8 36, label %27
    i8 31, label %27
    i8 18, label %27
    i8 15, label %27
    i8 13, label %27
    i8 6, label %27
  ]

27:                                               ; preds = %switch.early.test, %switch.early.test, %switch.early.test, %switch.early.test, %switch.early.test, %switch.early.test, %_ZNK6icu_779UVector6410elementAtiEi.exit
  %28 = icmp sgt i32 %23, %1
  br i1 %28, label %29, label %switch.early.test.thread

29:                                               ; preds = %27
  %30 = add nuw nsw i32 %23, 1
  %31 = load ptr, ptr %6, align 8, !tbaa !18
  %32 = load i32, ptr %31, align 4, !tbaa !13
  %33 = icmp slt i32 %32, 1
  br i1 %33, label %34, label %_ZN6icu_7712RegexCompile7buildOpEii.exit55

34:                                               ; preds = %29
  %35 = icmp eq i32 %23, 16777215
  br i1 %35, label %36, label %37

36:                                               ; preds = %34
  tail call void @abort() #17
  unreachable

37:                                               ; preds = %34
  %38 = and i32 %22, -16777216
  %39 = or i32 %30, %38
  %40 = sext i32 %39 to i64
  br label %_ZN6icu_7712RegexCompile7buildOpEii.exit55

_ZN6icu_7712RegexCompile7buildOpEii.exit55:       ; preds = %29, %37
  %.0.i53 = phi i64 [ %40, %37 ], [ 0, %29 ]
  %41 = trunc nuw nsw i64 %indvars.iv to i32
  tail call void @_ZN6icu_779UVector6412setElementAtEli(ptr noundef nonnull align 8 dereferenceable(32) %5, i64 noundef %.0.i53, i32 noundef %41)
  %.pre = load i32, ptr %9, align 8, !tbaa !80
  br label %switch.early.test.thread

switch.early.test.thread:                         ; preds = %switch.early.test, %_ZN6icu_7712RegexCompile7buildOpEii.exit55, %27
  %42 = phi i32 [ %18, %switch.early.test ], [ %.pre, %_ZN6icu_7712RegexCompile7buildOpEii.exit55 ], [ %18, %27 ]
  %indvars.iv.next = add nuw nsw i64 %indvars.iv, 1
  %43 = sext i32 %42 to i64
  %44 = icmp slt i64 %indvars.iv.next, %43
  br i1 %44, label %_ZNK6icu_779UVector6410elementAtiEi.exit, label %.preheader, !llvm.loop !149

_ZNK6icu_779UVector3210elementAtiEi.exit:         ; preds = %_ZNK6icu_779UVector3210elementAtiEi.exit.lr.ph, %53
  %45 = phi i32 [ %15, %_ZNK6icu_779UVector3210elementAtiEi.exit.lr.ph ], [ %54, %53 ]
  %indvars.iv60 = phi i64 [ 0, %_ZNK6icu_779UVector3210elementAtiEi.exit.lr.ph ], [ %indvars.iv.next61, %53 ]
  %46 = load ptr, ptr %17, align 8, !tbaa !111
  %47 = getelementptr inbounds nuw i32, ptr %46, i64 %indvars.iv60
  %48 = load i32, ptr %47, align 4, !tbaa !12
  %49 = icmp sgt i32 %48, %1
  br i1 %49, label %50, label %53

50:                                               ; preds = %_ZNK6icu_779UVector3210elementAtiEi.exit
  %51 = add nsw i32 %48, 1
  %52 = trunc nuw nsw i64 %indvars.iv60 to i32
  tail call void @_ZN6icu_779UVector3212setElementAtEii(ptr noundef nonnull align 8 dereferenceable(32) %13, i32 noundef %51, i32 noundef %52)
  %.pre63 = load i32, ptr %14, align 8, !tbaa !110
  br label %53

53:                                               ; preds = %50, %_ZNK6icu_779UVector3210elementAtiEi.exit
  %54 = phi i32 [ %.pre63, %50 ], [ %45, %_ZNK6icu_779UVector3210elementAtiEi.exit ]
  %indvars.iv.next61 = add nuw nsw i64 %indvars.iv60, 1
  %55 = sext i32 %54 to i64
  %56 = icmp slt i64 %indvars.iv.next61, %55
  br i1 %56, label %_ZNK6icu_779UVector3210elementAtiEi.exit, label %._crit_edge, !llvm.loop !150

._crit_edge:                                      ; preds = %53, %.preheader
  %57 = getelementptr inbounds nuw i8, ptr %0, i64 404
  %58 = load i32, ptr %57, align 4, !tbaa !53
  %59 = icmp sgt i32 %58, %1
  br i1 %59, label %60, label %62

60:                                               ; preds = %._crit_edge
  %61 = add nsw i32 %58, 1
  store i32 %61, ptr %57, align 4, !tbaa !53
  br label %62

62:                                               ; preds = %60, %._crit_edge
  %63 = getelementptr inbounds nuw i8, ptr %0, i64 400
  %64 = load i32, ptr %63, align 8, !tbaa !52
  %65 = icmp sgt i32 %64, %1
  br i1 %65, label %66, label %68

66:                                               ; preds = %62
  %67 = add nsw i32 %64, 1
  store i32 %67, ptr %63, align 8, !tbaa !52
  br label %68

68:                                               ; preds = %66, %62
  ret void
}